; Function Attrs: nounwind uwtable
define dso_local i32 @proctrack_p_create(ptr noundef %0) local_unnamed_addr #0 {
  %2 = tail call i32 @cgroup_g_step_create(i32 noundef 0, ptr noundef %0) #8
  %.not = icmp eq i32 %2, 0
  br i1 %.not, label %3, label %9

3:                                                ; preds = %1
  %4 = getelementptr inbounds nuw i8, ptr %0, i64 672
  %5 = load i32, ptr %4, align 8
  %6 = sext i32 %5 to i64
  %7 = getelementptr inbounds nuw i8, ptr %0, i64 696
  store i64 %6, ptr %7, align 8
  %8 = tail call i32 @cgroup_g_step_addto(i32 noundef 0, ptr noundef nonnull %4, i32 noundef 1) #8
  br label %9

9:                                                ; preds = %1, %3
  %.0 = phi i32 [ %8, %3 ], [ %2, %1 ]
  ret i32 %.0
}